###############################################################################
#                                                                             #
# IAR C/C++ Compiler V8.10.3.10338/W32 for 8051         25/Dec/2023  14:18:35 #
# Copyright 2004-2011 IAR Systems AB.                                         #
#                                                                             #
#    Core               =  plain                                              #
#    Code model         =  banked                                             #
#    Data model         =  large                                              #
#    Calling convention =  xdata reentrant                                    #
#    Constant location  =  data_rom                                           #
#    Dptr setup         =  1,16                                               #
#    Source file        =  D:\B2B-Zpro\wenduchuanganqi\ZStack-CC2530-2.5.1a\P #
#                          rojects\zstack\Samples\SampleApp\Source\ds18b20.c  #
#    Command line       =  -f D:\B2B-Zpro\wenduchuanganqi\ZStack-CC2530-2.5.1 #
#                          a\Projects\zstack\Samples\SampleApp\CC2530DB\..\.. #
#                          \..\Tools\CC2530DB\f8wEndev.cfg (-DCPU32MHZ        #
#                          -DROOT=__near_func -DMAC_CFG_TX_DATA_MAX=3         #
#                          -DMAC_CFG_TX_MAX=6 -DMAC_CFG_RX_MAX=3) -f          #
#                          D:\B2B-Zpro\wenduchuanganqi\ZStack-CC2530-2.5.1a\P #
#                          rojects\zstack\Samples\SampleApp\CC2530DB\..\..\.. #
#                          \Tools\CC2530DB\f8wConfig.cfg (-DZIGBEEPRO         #
#                          -DSECURE=0 -DZG_SECURE_DYNAMIC=0 -DREFLECTOR       #
#                          -DDEFAULT_CHANLIST=0x00000800                      #
#                          -DZDAPP_CONFIG_PAN_ID=0xFFFF                       #
#                          -DNWK_START_DELAY=100 -DEXTENDED_JOINING_RANDOM_MA #
#                          SK=0x007F -DBEACON_REQUEST_DELAY=100               #
#                          -DBEACON_REQ_DELAY_MASK=0x00FF                     #
#                          -DLINK_STATUS_JITTER_MASK=0x007F                   #
#                          -DROUTE_EXPIRY_TIME=30 -DAPSC_ACK_WAIT_DURATION_PO #
#                          LLED=3000 -DNWK_INDIRECT_MSG_TIMEOUT=7             #
#                          -DMAX_RREQ_ENTRIES=8 -DAPSC_MAX_FRAME_RETRIES=3    #
#                          -DNWK_MAX_DATA_RETRIES=2                           #
#                          -DMAX_POLL_FAILURE_RETRIES=2 -DMAX_BCAST=9         #
#                          -DAPS_MAX_GROUPS=16 -DMAX_RTG_ENTRIES=40           #
#                          -DNWK_MAX_BINDING_ENTRIES=4                        #
#                          -DMAX_BINDING_CLUSTER_IDS=4 "-DDEFAULT_KEY={0x01,  #
#                          0x03, 0x05, 0x07, 0x09, 0x0B, 0x0D, 0x0F, 0x00,    #
#                          0x02, 0x04, 0x06, 0x08, 0x0A, 0x0C, 0x0D}"         #
#                          -DMAC_MAX_FRAME_SIZE=116                           #
#                          -DZDNWKMGR_MIN_TRANSMISSIONS=20 "-DCONST=const     #
#                          __code" -DGENERIC=__generic                        #
#                          -DRFD_RCVC_ALWAYS_ON=FALSE -DPOLL_RATE=1000        #
#                          -DQUEUED_POLL_RATE=100 -DRESPONSE_POLL_RATE=100)   #
#                          -DREJOIN_POLL_RATE=440 D:\B2B-Zpro\wenduchuanganqi #
#                          \ZStack-CC2530-2.5.1a\Projects\zstack\Samples\Samp #
#                          leApp\Source\ds18b20.c -D NWK_AUTO_POLL -D         #
#                          ZTOOL_P1 -D MT_TASK -D MT_SYS_FUNC -D MT_ZDO_FUNC  #
#                          -D LCD_SUPPORTED=DEBUG -lC                         #
#                          D:\B2B-Zpro\wenduchuanganqi\ZStack-CC2530-2.5.1a\P #
#                          rojects\zstack\Samples\SampleApp\CC2530DB\EndDevic #
#                          eEB\List\ -lA D:\B2B-Zpro\wenduchuanganqi\ZStack-C #
#                          C2530-2.5.1a\Projects\zstack\Samples\SampleApp\CC2 #
#                          530DB\EndDeviceEB\List\ --diag_suppress            #
#                          Pe001,Pa010 -o D:\B2B-Zpro\wenduchuanganqi\ZStack- #
#                          CC2530-2.5.1a\Projects\zstack\Samples\SampleApp\CC #
#                          2530DB\EndDeviceEB\Obj\ -e --no_code_motion        #
#                          --debug --core=plain --dptr=16,1                   #
#                          --data_model=large --code_model=banked             #
#                          --calling_convention=xdata_reentrant               #
#                          --place_constants=data_rom --nr_virtual_regs 16    #
#                          -I D:\B2B-Zpro\wenduchuanganqi\ZStack-CC2530-2.5.1 #
#                          a\Projects\zstack\Samples\SampleApp\CC2530DB\ -I   #
#                          D:\B2B-Zpro\wenduchuanganqi\ZStack-CC2530-2.5.1a\P #
#                          rojects\zstack\Samples\SampleApp\CC2530DB\..\Sourc #
#                          e\ -I D:\B2B-Zpro\wenduchuanganqi\ZStack-CC2530-2. #
#                          5.1a\Projects\zstack\Samples\SampleApp\CC2530DB\.. #
#                          \..\..\ZMain\TI2530DB\ -I                          #
#                          D:\B2B-Zpro\wenduchuanganqi\ZStack-CC2530-2.5.1a\P #
#                          rojects\zstack\Samples\SampleApp\CC2530DB\..\..\.. #
#                          \..\..\Components\hal\include\ -I                  #
#                          D:\B2B-Zpro\wenduchuanganqi\ZStack-CC2530-2.5.1a\P #
#                          rojects\zstack\Samples\SampleApp\CC2530DB\..\..\.. #
#                          \..\..\Components\hal\target\CC2530EB\ -I          #
#                          D:\B2B-Zpro\wenduchuanganqi\ZStack-CC2530-2.5.1a\P #
#                          rojects\zstack\Samples\SampleApp\CC2530DB\..\..\.. #
#                          \..\..\Components\mac\include\ -I                  #
#                          D:\B2B-Zpro\wenduchuanganqi\ZStack-CC2530-2.5.1a\P #
#                          rojects\zstack\Samples\SampleApp\CC2530DB\..\..\.. #
#                          \..\..\Components\mac\high_level\ -I               #
#                          D:\B2B-Zpro\wenduchuanganqi\ZStack-CC2530-2.5.1a\P #
#                          rojects\zstack\Samples\SampleApp\CC2530DB\..\..\.. #
#                          \..\..\Components\mac\low_level\srf04\ -I          #
#                          D:\B2B-Zpro\wenduchuanganqi\ZStack-CC2530-2.5.1a\P #
#                          rojects\zstack\Samples\SampleApp\CC2530DB\..\..\.. #
#                          \..\..\Components\mac\low_level\srf04\single_chip\ #
#                           -I D:\B2B-Zpro\wenduchuanganqi\ZStack-CC2530-2.5. #
#                          1a\Projects\zstack\Samples\SampleApp\CC2530DB\..\. #
#                          .\..\..\..\Components\mt\ -I                       #
#                          D:\B2B-Zpro\wenduchuanganqi\ZStack-CC2530-2.5.1a\P #
#                          rojects\zstack\Samples\SampleApp\CC2530DB\..\..\.. #
#                          \..\..\Components\osal\include\ -I                 #
#                          D:\B2B-Zpro\wenduchuanganqi\ZStack-CC2530-2.5.1a\P #
#                          rojects\zstack\Samples\SampleApp\CC2530DB\..\..\.. #
#                          \..\..\Components\services\saddr\ -I               #
#                          D:\B2B-Zpro\wenduchuanganqi\ZStack-CC2530-2.5.1a\P #
#                          rojects\zstack\Samples\SampleApp\CC2530DB\..\..\.. #
#                          \..\..\Components\services\sdata\ -I               #
#                          D:\B2B-Zpro\wenduchuanganqi\ZStack-CC2530-2.5.1a\P #
#                          rojects\zstack\Samples\SampleApp\CC2530DB\..\..\.. #
#                          \..\..\Components\stack\af\ -I                     #
#                          D:\B2B-Zpro\wenduchuanganqi\ZStack-CC2530-2.5.1a\P #
#                          rojects\zstack\Samples\SampleApp\CC2530DB\..\..\.. #
#                          \..\..\Components\stack\nwk\ -I                    #
#                          D:\B2B-Zpro\wenduchuanganqi\ZStack-CC2530-2.5.1a\P #
#                          rojects\zstack\Samples\SampleApp\CC2530DB\..\..\.. #
#                          \..\..\Components\stack\sapi\ -I                   #
#                          D:\B2B-Zpro\wenduchuanganqi\ZStack-CC2530-2.5.1a\P #
#                          rojects\zstack\Samples\SampleApp\CC2530DB\..\..\.. #
#                          \..\..\Components\stack\sec\ -I                    #
#                          D:\B2B-Zpro\wenduchuanganqi\ZStack-CC2530-2.5.1a\P #
#                          rojects\zstack\Samples\SampleApp\CC2530DB\..\..\.. #
#                          \..\..\Components\stack\sys\ -I                    #
#                          D:\B2B-Zpro\wenduchuanganqi\ZStack-CC2530-2.5.1a\P #
#                          rojects\zstack\Samples\SampleApp\CC2530DB\..\..\.. #
#                          \..\..\Components\stack\zdo\ -I                    #
#                          D:\B2B-Zpro\wenduchuanganqi\ZStack-CC2530-2.5.1a\P #
#                          rojects\zstack\Samples\SampleApp\CC2530DB\..\..\.. #
#                          \..\..\Components\zmac\ -I                         #
#                          D:\B2B-Zpro\wenduchuanganqi\ZStack-CC2530-2.5.1a\P #
#                          rojects\zstack\Samples\SampleApp\CC2530DB\..\..\.. #
#                          \..\..\Components\zmac\f8w\ -Ohz                   #
#                          --require_prototypes                               #
#    List file          =  D:\B2B-Zpro\wenduchuanganqi\ZStack-CC2530-2.5.1a\P #
#                          rojects\zstack\Samples\SampleApp\CC2530DB\EndDevic #
#                          eEB\List\ds18b20.lst                               #
#    Object file        =  D:\B2B-Zpro\wenduchuanganqi\ZStack-CC2530-2.5.1a\P #
#                          rojects\zstack\Samples\SampleApp\CC2530DB\EndDevic #
#                          eEB\Obj\ds18b20.r51                                #
#                                                                             #
#                                                                             #
###############################################################################

D:\B2B-Zpro\wenduchuanganqi\ZStack-CC2530-2.5.1a\Projects\zstack\Samples\SampleApp\Source\ds18b20.c
      1          #include"iocc2530.h"

   \                                 In  segment SFR_AN, at 0x80
   \   union <unnamed> volatile __sfr _A_P0
   \                     _A_P0:
   \   000000                DS 1

   \                                 In  segment SFR_AN, at 0xfd
   \   unsigned char volatile __sfr P0DIR
   \                     P0DIR:
   \   000000                DS 1
      2          #include"OnBoard.h"
      3          #include "ds18b20.h" 
      4          
      5          #define Ds18b20IO P0_7       //温度传感器引脚
      6          
      7          
      8          void Ds18b20Delay(unsigned int k);
      9          void Ds18b20InputInitial(void);
     10          void Ds18b20OutputInitial(void);
     11          unsigned char Ds18b20Initial(void);
     12          void Ds18b20Write(unsigned char infor);
     13          unsigned char Ds18b20Read(void);
     14          
     15          
     16          //时钟频率为32M  不同的厂家延时可能需要调整

   \                                 In  segment BANKED_CODE, align 1, keep-with-next
     17          void Ds18b20Delay(unsigned int k)
   \                     Ds18b20Delay:
     18          {
   \   000000                ; Saved register size: 0
   \   000000                ; Auto size: 0
   \   000000   8009         SJMP    ??Ds18b20Delay_0
     19            while (k--)
     20            {
     21              asm("NOP");
   \                     ??Ds18b20Delay_1:
   \   000002   00           NOP
     22              asm("NOP");
   \   000003   00           NOP
     23              asm("NOP");
   \   000004   00           NOP
     24              asm("NOP");
   \   000005   00           NOP
     25              asm("NOP");
   \   000006   00           NOP
     26              asm("NOP");
   \   000007   00           NOP
     27              asm("NOP");
   \   000008   00           NOP
     28              asm("NOP"); 
   \   000009   00           NOP
     29              asm("NOP");  
   \   00000A   00           NOP
     30            }
   \                     ??Ds18b20Delay_0:
   \   00000B   EA           MOV     A,R2
   \   00000C   F8           MOV     R0,A
   \   00000D   EB           MOV     A,R3
   \   00000E   F9           MOV     R1,A
   \   00000F   E8           MOV     A,R0
   \   000010   24FF         ADD     A,#-0x1
   \   000012   1A           DEC     R2
   \   000013   E9           MOV     A,R1
   \   000014   34FF         ADDC    A,#-0x1
   \   000016   FB           MOV     R3,A
   \   000017   E8           MOV     A,R0
   \   000018   49           ORL     A,R1
   \   000019   70E7         JNZ     ??Ds18b20Delay_1
     31          }
   \   00001B   02....       LJMP    ?BRET
     32          

   \                                 In  segment BANKED_CODE, align 1, keep-with-next
     33          void Ds18b20InputInitial(void)//设置端口为输入
   \                     Ds18b20InputInitial:
     34          {
   \   000000                ; Saved register size: 0
   \   000000                ; Auto size: 0
     35              P0DIR &= 0x7f;
   \   000000   53FD7F       ANL     0xfd,#0x7f
     36          }
   \   000003   02....       LJMP    ?BRET
   \   000006                REQUIRE P0DIR
     37          

   \                                 In  segment BANKED_CODE, align 1, keep-with-next
     38          void Ds18b20OutputInitial(void)//设置端口为输出
   \                     Ds18b20OutputInitial:
     39          {
   \   000000                ; Saved register size: 0
   \   000000                ; Auto size: 0
     40              P0DIR |= 0x80;
   \   000000   43FD80       ORL     0xfd,#0x80
     41          }
   \   000003   02....       LJMP    ?BRET
   \   000006                REQUIRE P0DIR
     42          
     43          //ds18b20初始化  初始化成功返回0x00，失败返回0x01

   \                                 In  segment BANKED_CODE, align 1, keep-with-next
     44          unsigned char Ds18b20Initial(void)
   \                     Ds18b20Initial:
     45          {
   \   000000   74F6         MOV     A,#-0xa
   \   000002   12....       LCALL   ?BANKED_ENTER_XDATA
   \   000005                ; Saved register size: 10
   \   000005                ; Auto size: 0
     46              unsigned char Status = 0x00;
   \   000005   75..00       MOV     ?V0 + 0,#0x0
     47              unsigned int CONT_1 = 0;
   \   000008   7E00         MOV     R6,#0x0
   \   00000A   7F00         MOV     R7,#0x0
     48              unsigned char Flag_1 = 1;
   \   00000C   75..01       MOV     ?V0 + 1,#0x1
     49              Ds18b20OutputInitial();
   \   00000F   43FD80       ORL     0xfd,#0x80
     50              Ds18b20IO = 1;      //DQ复位
   \   000012   D287         SETB    0x80.7
     51              Ds18b20Delay(260);  //稍做延时
   \   000014                ; Setup parameters for call to function Ds18b20Delay
   \   000014   7A04         MOV     R2,#0x4
   \   000016   7B01         MOV     R3,#0x1
   \   000018   12....       LCALL   ??Ds18b20Delay?relay
     52              Ds18b20IO = 0;      //单片机将DQ拉低
   \   00001B   C287         CLR     0x80.7
     53              Ds18b20Delay(750);  //精确延时 大于 480us 小于960us
   \   00001D                ; Setup parameters for call to function Ds18b20Delay
   \   00001D   7AEE         MOV     R2,#-0x12
   \   00001F   7B02         MOV     R3,#0x2
   \   000021   12....       LCALL   ??Subroutine4_0 & 0xFFFF
     54              Ds18b20IO = 1;      //拉高总线
     55              Ds18b20InputInitial();//设置IO输入
   \                     ??CrossCallReturnLabel_7:
   \   000024   53FD7F       ANL     0xfd,#0x7f
   \   000027   8021         SJMP    ??Ds18b20Initial_0
     56              while((Ds18b20IO != 0)&&(Flag_1 == 1))//等待ds18b20响应，具有防止超时功能
     57              {                                      //等待约60ms左右
     58                  CONT_1++;
   \                     ??Ds18b20Initial_1:
   \   000029   EE           MOV     A,R6
   \   00002A   2401         ADD     A,#0x1
   \   00002C   0E           INC     R6
   \   00002D   EF           MOV     A,R7
   \   00002E   3400         ADDC    A,#0x0
   \   000030   FF           MOV     R7,A
     59                  Ds18b20Delay(10);
   \   000031                ; Setup parameters for call to function Ds18b20Delay
   \   000031   7A0A         MOV     R2,#0xa
   \   000033   7B00         MOV     R3,#0x0
   \   000035   12....       LCALL   ??Ds18b20Delay?relay
     60                  if(CONT_1 > 8000)Flag_1 = 0;
   \   000038   C3           CLR     C
   \   000039   EE           MOV     A,R6
   \   00003A   9441         SUBB    A,#0x41
   \   00003C   EF           MOV     A,R7
   \   00003D   941F         SUBB    A,#0x1f
   \   00003F   4003         JC      ??Ds18b20Initial_2
   \   000041   75..00       MOV     ?V0 + 1,#0x0
     61                  Status = Ds18b20IO;
   \                     ??Ds18b20Initial_2:
   \   000044   A287         MOV     C,0x80.7
   \   000046   E4           CLR     A
   \   000047   33           RLC     A
   \   000048   F5..         MOV     ?V0 + 0,A
     62              }
   \                     ??Ds18b20Initial_0:
   \   00004A   A287         MOV     C,0x80.7
   \   00004C   5006         JNC     ??Ds18b20Initial_3
   \   00004E   E5..         MOV     A,?V0 + 1
   \   000050   A2E0         MOV     C,0xE0 /* A   */.0
   \   000052   40D5         JC      ??Ds18b20Initial_1
     63              Ds18b20OutputInitial();
   \                     ??Ds18b20Initial_3:
   \   000054   43FD80       ORL     0xfd,#0x80
     64              Ds18b20IO = 1;
   \   000057   D287         SETB    0x80.7
     65              Ds18b20Delay(100);
   \   000059                ; Setup parameters for call to function Ds18b20Delay
   \   000059   7A64         MOV     R2,#0x64
   \   00005B   7B00         MOV     R3,#0x0
   \   00005D   12....       LCALL   ??Ds18b20Delay?relay
     66              return Status;       //返回初始化状态
   \   000060   A9..         MOV     R1,?V0 + 0
   \   000062   7F02         MOV     R7,#0x2
   \   000064   02....       LJMP    ?BANKED_LEAVE_XDATA
   \   000067                REQUIRE _A_P0
   \   000067                REQUIRE P0DIR
     67          }

   \                                 In  segment BANKED_CODE, align 1, keep-with-next
   \                     ??Subroutine4_0:
   \   000000   12....       LCALL   ??Ds18b20Delay?relay
   \   000003   D287         SETB    0x80.7
   \   000005   22           RET
     68          

   \                                 In  segment BANKED_CODE, align 1, keep-with-next
     69          void Ds18b20Write(unsigned char infor)
   \                     Ds18b20Write:
     70          {
   \   000000   74F7         MOV     A,#-0x9
   \   000002   12....       LCALL   ?BANKED_ENTER_XDATA
   \   000005                ; Saved register size: 9
   \   000005                ; Auto size: 0
   \   000005   E9           MOV     A,R1
   \   000006   FF           MOV     R7,A
     71              unsigned int i;
     72              Ds18b20OutputInitial();
   \   000007   43FD80       ORL     0xfd,#0x80
     73              for(i=0;i<8;i++)
   \   00000A   7E08         MOV     R6,#0x8
     74              {
     75                  if((infor & 0x01))
   \                     ??Ds18b20Write_0:
   \   00000C   EF           MOV     A,R7
   \   00000D   A2E0         MOV     C,0xE0 /* A   */.0
   \   00000F   C287         CLR     0x80.7
   \   000011   5009         JNC     ??Ds18b20Write_1
     76                  {
     77                      Ds18b20IO = 0;
     78                      Ds18b20Delay(6);
   \   000013                ; Setup parameters for call to function Ds18b20Delay
   \   000013   7A06         MOV     R2,#0x6
   \   000015   12....       LCALL   ?Subroutine2 & 0xFFFF
     79                      Ds18b20IO = 1;
     80                      Ds18b20Delay(50);
   \                     ??CrossCallReturnLabel_4:
   \   000018                ; Setup parameters for call to function Ds18b20Delay
   \   000018   7A32         MOV     R2,#0x32
   \   00001A   8007         SJMP    ??Ds18b20Write_2
     81                  }
     82                  else
     83                  {
     84                      Ds18b20IO = 0;
     85                      Ds18b20Delay(50);
   \                     ??Ds18b20Write_1:
   \   00001C                ; Setup parameters for call to function Ds18b20Delay
   \   00001C   7A32         MOV     R2,#0x32
   \   00001E   12....       LCALL   ?Subroutine2 & 0xFFFF
     86                      Ds18b20IO = 1;
     87                      Ds18b20Delay(6);
   \                     ??CrossCallReturnLabel_5:
   \   000021                ; Setup parameters for call to function Ds18b20Delay
   \   000021   7A06         MOV     R2,#0x6
   \                     ??Ds18b20Write_2:
   \   000023   7B00         MOV     R3,#0x0
   \   000025   12....       LCALL   ??Ds18b20Delay?relay
     88                  }
     89                  infor >>= 1;
   \   000028   EF           MOV     A,R7
   \   000029   C3           CLR     C
   \   00002A   13           RRC     A
   \   00002B   FF           MOV     R7,A
     90              }
   \   00002C   1E           DEC     R6
   \   00002D   EE           MOV     A,R6
   \   00002E   70DC         JNZ     ??Ds18b20Write_0
     91          }
   \   000030   80..         SJMP    ??Subroutine5_0
   \   000032                REQUIRE _A_P0
   \   000032                REQUIRE P0DIR

   \                                 In  segment BANKED_CODE, align 1, keep-with-next
   \                     ?Subroutine2:
   \   000000   7B00         MOV     R3,#0x0
   \   000002                REQUIRE ??Subroutine4_0
   \   000002                ; // Fall through to label ??Subroutine4_0

   \                                 In  segment BANKED_CODE, align 1, keep-with-next
   \                     ??Subroutine5_0:
   \   000000   7F01         MOV     R7,#0x1
   \   000002   02....       LJMP    ?BANKED_LEAVE_XDATA
     92          

   \                                 In  segment BANKED_CODE, align 1, keep-with-next
     93          unsigned char Ds18b20Read(void)
   \                     Ds18b20Read:
     94          {
   \   000000   74F7         MOV     A,#-0x9
   \   000002   12....       LCALL   ?BANKED_ENTER_XDATA
   \   000005                ; Saved register size: 9
   \   000005                ; Auto size: 0
     95              unsigned char Value = 0x00;
   \   000005   7E00         MOV     R6,#0x0
     96              unsigned int i;
     97              Ds18b20OutputInitial();
   \   000007   43FD80       ORL     0xfd,#0x80
     98              Ds18b20IO = 1;
   \   00000A   D287         SETB    0x80.7
     99              Ds18b20Delay(10);
   \   00000C                ; Setup parameters for call to function Ds18b20Delay
   \   00000C   7A0A         MOV     R2,#0xa
   \   00000E   7B00         MOV     R3,#0x0
   \   000010   12....       LCALL   ??Ds18b20Delay?relay
    100              for(i=0;i<8;i++)
   \   000013   7F08         MOV     R7,#0x8
    101              {
    102                  Value >>= 1; 
   \                     ??Ds18b20Read_0:
   \   000015   EE           MOV     A,R6
   \   000016   C3           CLR     C
   \   000017   13           RRC     A
   \   000018   FE           MOV     R6,A
    103                  Ds18b20OutputInitial();
   \   000019   43FD80       ORL     0xfd,#0x80
    104                  Ds18b20IO = 0;// 给脉冲信号
   \   00001C   C287         CLR     0x80.7
    105                  Ds18b20Delay(3);
   \   00001E                ; Setup parameters for call to function Ds18b20Delay
   \   00001E   7A03         MOV     R2,#0x3
   \   000020   12....       LCALL   ?Subroutine2 & 0xFFFF
    106                  Ds18b20IO = 1;// 给脉冲信号
    107                  Ds18b20Delay(3);
   \                     ??CrossCallReturnLabel_6:
   \   000023                ; Setup parameters for call to function Ds18b20Delay
   \   000023   7A03         MOV     R2,#0x3
   \   000025   7B00         MOV     R3,#0x0
   \   000027   12....       LCALL   ??Ds18b20Delay?relay
    108                  Ds18b20InputInitial();
   \   00002A   53FD7F       ANL     0xfd,#0x7f
    109                  if(Ds18b20IO == 1) Value |= 0x80;
   \   00002D   A287         MOV     C,0x80.7
   \   00002F   5004         JNC     ??Ds18b20Read_1
   \   000031   EE           MOV     A,R6
   \   000032   D2E7         SETB    0xE0 /* A   */.7
   \   000034   FE           MOV     R6,A
    110                  Ds18b20Delay(15);
   \                     ??Ds18b20Read_1:
   \   000035                ; Setup parameters for call to function Ds18b20Delay
   \   000035   7A0F         MOV     R2,#0xf
   \   000037   7B00         MOV     R3,#0x0
   \   000039   12....       LCALL   ??Ds18b20Delay?relay
    111              } 
   \   00003C   1F           DEC     R7
   \   00003D   EF           MOV     A,R7
   \   00003E   70D5         JNZ     ??Ds18b20Read_0
    112              return Value;
   \   000040   EE           MOV     A,R6
   \   000041                REQUIRE ?Subroutine0
   \   000041                REQUIRE _A_P0
   \   000041                REQUIRE P0DIR
   \   000041                ; // Fall through to label ?Subroutine0
    113          }

   \                                 In  segment BANKED_CODE, align 1, keep-with-next
   \                     ?Subroutine0:
   \   000000   F9           MOV     R1,A
   \   000001                REQUIRE ??Subroutine5_0
   \   000001                ; // Fall through to label ??Subroutine5_0
    114          
    115          //温度读取函数

   \                                 In  segment BANKED_CODE, align 1, keep-with-next
    116          unsigned char ReadDs18B20(void) 
   \                     ReadDs18B20:
    117          {
   \   000000   74F7         MOV     A,#-0x9
   \   000002   12....       LCALL   ?BANKED_ENTER_XDATA
   \   000005                ; Saved register size: 9
   \   000005                ; Auto size: 0
    118              unsigned char V1,V2;   //定义高低8位 缓冲
    119              unsigned char temp;    //定义温度缓冲寄存器
    120              
    121              Ds18b20Initial();
   \   000005                ; Setup parameters for call to function Ds18b20Initial
   \   000005   12....       LCALL   ?Subroutine1 & 0xFFFF
    122              Ds18b20Write(0xcc);    // 跳过读序号列号的操作
    123              Ds18b20Write(0x44);    // 启动温度转换
    124              
    125              Ds18b20Initial();
    126              Ds18b20Write(0xcc);    //跳过读序号列号的操作 
    127              Ds18b20Write(0xbe);    //读取温度寄存器等（共可读9个寄存器） 前两个就是温度
    128              
    129              V1 = Ds18b20Read();    //低位
   \                     ??CrossCallReturnLabel_0:
   \   000008   FE           MOV     R6,A
    130              V2 = Ds18b20Read();    //高位
    131              temp = ((V1 >> 4)+((V2 & 0x07)*16)); //转换数据 
    132          
    133              return temp;
   \   000009                ; Setup parameters for call to function Ds18b20Read
   \   000009   12....       LCALL   ??Ds18b20Read?relay
   \   00000C   E9           MOV     A,R1
   \   00000D   5407         ANL     A,#0x7
   \   00000F   C4           SWAP    A
   \   000010   F8           MOV     R0,A
   \   000011   EE           MOV     A,R6
   \   000012   C4           SWAP    A
   \   000013   540F         ANL     A,#0xf
   \   000015   28           ADD     A,R0
   \   000016   80..         SJMP    ?Subroutine0
    134          }

   \                                 In  segment BANKED_CODE, align 1, keep-with-next
   \                     ?Subroutine1:
   \   000000   12....       LCALL   ?Subroutine3 & 0xFFFF
   \                     ??CrossCallReturnLabel_2:
   \   000003                ; Setup parameters for call to function Ds18b20Write
   \   000003                ; Setup parameters for call to function Ds18b20Write
   \   000003   7944         MOV     R1,#0x44
   \   000005   12....       LCALL   ??Ds18b20Write?relay
   \   000008                ; Setup parameters for call to function Ds18b20Initial
   \   000008                ; Setup parameters for call to function Ds18b20Initial
   \   000008   12....       LCALL   ?Subroutine3 & 0xFFFF
   \                     ??CrossCallReturnLabel_3:
   \   00000B                ; Setup parameters for call to function Ds18b20Write
   \   00000B                ; Setup parameters for call to function Ds18b20Write
   \   00000B   79BE         MOV     R1,#-0x42
   \   00000D   12....       LCALL   ??Ds18b20Write?relay
   \   000010                ; Setup parameters for call to function Ds18b20Read
   \   000010                ; Setup parameters for call to function Ds18b20Read
   \   000010   12....       LCALL   ??Ds18b20Read?relay
   \   000013   E9           MOV     A,R1
   \   000014   22           RET

   \                                 In  segment BANKED_CODE, align 1, keep-with-next
   \                     ?Subroutine3:
   \   000000   12....       LCALL   ??Ds18b20Initial?relay
   \   000003                ; Setup parameters for call to function Ds18b20Write
   \   000003                ; Setup parameters for call to function Ds18b20Write
   \   000003                ; Setup parameters for call to function Ds18b20Write
   \   000003                ; Setup parameters for call to function Ds18b20Write
   \   000003   79CC         MOV     R1,#-0x34
   \   000005   12....       LCALL   ??Ds18b20Write?relay
   \   000008   22           RET
    135          
    136          //温度读取函数 带1位小数位

   \                                 In  segment BANKED_CODE, align 1, keep-with-next
    137          float floatReadDs18B20(void) 
   \                     floatReadDs18B20:
    138          {
   \   000000   74F0         MOV     A,#-0x10
   \   000002   12....       LCALL   ?BANKED_ENTER_XDATA
   \   000005                ; Saved register size: 16
   \   000005                ; Auto size: 0
    139              unsigned char V1,V2;   //定义高低8位 缓冲
    140              unsigned int temp;     //定义温度缓冲寄存器
    141              float fValue;
    142              Ds18b20Initial();
   \   000005                ; Setup parameters for call to function Ds18b20Initial
   \   000005   12....       LCALL   ?Subroutine1 & 0xFFFF
    143              Ds18b20Write(0xcc);    // 跳过读序号列号的操作
    144              Ds18b20Write(0x44);    // 启动温度转换
    145              
    146              Ds18b20Initial();
    147              Ds18b20Write(0xcc);    //跳过读序号列号的操作 
    148              Ds18b20Write(0xbe);    //读取温度寄存器等（共可读9个寄存器） 前两个就是温度
    149              
    150              V1 = Ds18b20Read();    //低位
   \                     ??CrossCallReturnLabel_1:
   \   000008   F5..         MOV     ?V0 + 0,A
    151              V2 = Ds18b20Read();    //高位
    152              //temp = ((V1 >> 4)+((V2 & 0x07)*16)); //转换数据 
    153              temp=V2*0xFF+V1;
    154              fValue = temp*0.0625;
    155              
    156              return fValue;
   \   00000A                ; Setup parameters for call to function Ds18b20Read
   \   00000A   12....       LCALL   ??Ds18b20Read?relay
   \   00000D   E9           MOV     A,R1
   \   00000E   75F0FF       MOV     B,#-0x1
   \   000011   A4           MUL     AB
   \   000012   25..         ADD     A,?V0 + 0
   \   000014   F5..         MOV     ?V0 + 0,A
   \   000016   E5F0         MOV     A,B
   \   000018   3400         ADDC    A,#0x0
   \   00001A   F5..         MOV     ?V0 + 1,A
   \   00001C   E4           CLR     A
   \   00001D   F5..         MOV     ?V0 + 2,A
   \   00001F   F5..         MOV     ?V0 + 3,A
   \   000021   78..         MOV     R0,#?V0 + 0
   \   000023   12....       LCALL   ?UL_TO_FLT
   \   000026   90....       MOV     DPTR,#__Constant_3d800000
   \   000029   78..         MOV     R0,#?V0 + 4
   \   00002B   12....       LCALL   ?L_MOV_X
   \   00002E   78..         MOV     R0,#?V0 + 0
   \   000030   79..         MOV     R1,#?V0 + 4
   \   000032   12....       LCALL   ?FLT_MUL
   \   000035   AA..         MOV     R2,?V0 + 0
   \   000037   AB..         MOV     R3,?V0 + 1
   \   000039   AC..         MOV     R4,?V0 + 2
   \   00003B   AD..         MOV     R5,?V0 + 3
   \   00003D   7F08         MOV     R7,#0x8
   \   00003F   02....       LJMP    ?BANKED_LEAVE_XDATA
    157          }

   \                                 In  segment XDATA_ROM_C, align 1
   \                     __Constant_3d800000:
   \   000000   0000803D     DD 3D800000H

   \                                 In  segment BANK_RELAYS, align 1
   \                     ??Ds18b20Delay?relay:
   \   000000   12....       LCALL   ?BDISPATCH
   \   000003   ......       DC24    Ds18b20Delay

   \                                 In  segment BANK_RELAYS, align 1
   \                     ??Ds18b20InputInitial?relay:
   \   000000   12....       LCALL   ?BDISPATCH
   \   000003   ......       DC24    Ds18b20InputInitial

   \                                 In  segment BANK_RELAYS, align 1
   \                     ??Ds18b20OutputInitial?relay:
   \   000000   12....       LCALL   ?BDISPATCH
   \   000003   ......       DC24    Ds18b20OutputInitial

   \                                 In  segment BANK_RELAYS, align 1
   \                     ??Ds18b20Initial?relay:
   \   000000   12....       LCALL   ?BDISPATCH
   \   000003   ......       DC24    Ds18b20Initial

   \                                 In  segment BANK_RELAYS, align 1
   \                     ??Ds18b20Write?relay:
   \   000000   12....       LCALL   ?BDISPATCH
   \   000003   ......       DC24    Ds18b20Write

   \                                 In  segment BANK_RELAYS, align 1
   \                     ??Ds18b20Read?relay:
   \   000000   12....       LCALL   ?BDISPATCH
   \   000003   ......       DC24    Ds18b20Read

   \                                 In  segment BANK_RELAYS, align 1
   \                     ??ReadDs18B20?relay:
   \   000000   12....       LCALL   ?BDISPATCH
   \   000003   ......       DC24    ReadDs18B20

   \                                 In  segment BANK_RELAYS, align 1
   \                     ??floatReadDs18B20?relay:
   \   000000   12....       LCALL   ?BDISPATCH
   \   000003   ......       DC24    floatReadDs18B20

   Maximum stack usage in bytes:

     Function             ISTACK PSTACK XSTACK
     --------             ------ ------ ------
     Ds18b20Delay             0      0     10
     Ds18b20Initial           0      0     26
       -> Ds18b20Delay        0      0     20
       -> Ds18b20Delay        0      0     20
       -> Ds18b20Delay        0      0     20
       -> Ds18b20Delay        0      0     20
     Ds18b20InputInitial      0      0      0
     Ds18b20OutputInitial     0      0      0
     Ds18b20Read              0      0     25
       -> Ds18b20Delay        0      0     18
       -> Ds18b20Delay        0      0     18
       -> Ds18b20Delay        0      0     18
       -> Ds18b20Delay        0      0     18
     Ds18b20Write             0      0     25
       -> Ds18b20Delay        0      0     18
       -> Ds18b20Delay        0      0     18
       -> Ds18b20Delay        0      0     18
       -> Ds18b20Delay        0      0     18
     ReadDs18B20              0      0      9
       -> Ds18b20Initial      0      0     18
       -> Ds18b20Write        0      0     18
       -> Ds18b20Write        0      0     18
       -> Ds18b20Initial      0      0     18
       -> Ds18b20Write        0      0     18
       -> Ds18b20Write        0      0     18
       -> Ds18b20Read         0      0     18
       -> Ds18b20Read         0      0     18
     floatReadDs18B20         0      0     16
       -> Ds18b20Initial      0      0     32
       -> Ds18b20Write        0      0     32
       -> Ds18b20Write        0      0     32
       -> Ds18b20Initial      0      0     32
       -> Ds18b20Write        0      0     32
       -> Ds18b20Write        0      0     32
       -> Ds18b20Read         0      0     32
       -> Ds18b20Read         0      0     32


   Segment part sizes:

     Function/Label               Bytes
     --------------               -----
     _A_P0                           1
     P0DIR                           1
     Ds18b20Delay                   30
     Ds18b20InputInitial             6
     Ds18b20OutputInitial            6
     Ds18b20Initial                103
     ??Subroutine4_0                 6
     Ds18b20Write                   50
     ?Subroutine2                    2
     ??Subroutine5_0                 5
     Ds18b20Read                    65
     ?Subroutine0                    1
     ReadDs18B20                    24
     ?Subroutine1                   21
     ?Subroutine3                    9
     floatReadDs18B20               66
     __Constant_3d800000             4
     ??Ds18b20Delay?relay            6
     ??Ds18b20InputInitial?relay     6
     ??Ds18b20OutputInitial?relay    6
     ??Ds18b20Initial?relay          6
     ??Ds18b20Write?relay            6
     ??Ds18b20Read?relay             6
     ??ReadDs18B20?relay             6
     ??floatReadDs18B20?relay        6

 
 394 bytes in segment BANKED_CODE
  48 bytes in segment BANK_RELAYS
   2 bytes in segment SFR_AN
   4 bytes in segment XDATA_ROM_C
 
 442 bytes of CODE  memory
   0 bytes of CONST memory (+ 4 bytes shared)
   0 bytes of DATA  memory (+ 2 bytes shared)

Errors: none
Warnings: none
